; Function Attrs: nounwind uwtable
define void @Gia_SimQualityTest(ptr noundef captures(none) %0) local_unnamed_addr #4 {
  %2 = alloca i32, align 4
  call void @llvm.lifetime.start.p0(i64 4, ptr nonnull %2) #32
  %3 = getelementptr i8, ptr %0, i64 64
  %.val17 = load ptr, ptr %3, align 8, !tbaa !3
  %4 = getelementptr i8, ptr %.val17, i64 4
  %.val17.val = load i32, ptr %4, align 4, !tbaa !28
  %5 = shl nuw i32 1, %.val17.val
  store i32 0, ptr %2, align 4, !tbaa !30
  %.not = icmp eq i32 %.val17.val, 31
  br i1 %.not, label %._crit_edge27, label %.lr.ph26

.lr.ph26:                                         ; preds = %1, %Vec_IntFree.exit20
  %storemerge24 = phi i32 [ %65, %Vec_IntFree.exit20 ], [ 0, %1 ]
  %6 = call i32 (ptr, ...) @printf(ptr noundef nonnull dereferenceable(1) @.str.36, i32 noundef %storemerge24)
  %7 = load ptr, ptr @stdout, align 8, !tbaa !270
  %.val16 = load ptr, ptr %3, align 8, !tbaa !3
  %8 = getelementptr i8, ptr %.val16, i64 4
  %.val16.val = load i32, ptr %8, align 4, !tbaa !28
  call void @Extra_PrintBinary(ptr noundef %7, ptr noundef nonnull %2, i32 noundef %.val16.val) #32
  %putchar = call i32 @putchar(i32 32)
  %.val15 = load ptr, ptr %3, align 8, !tbaa !3
  %9 = getelementptr i8, ptr %.val15, i64 4
  %.val15.val = load i32, ptr %9, align 4, !tbaa !28
  %10 = call noalias dereferenceable_or_null(16) ptr @malloc(i64 noundef 16) #31
  %11 = add i32 %.val15.val, -1
  %or.cond.i = icmp ult i32 %11, 15
  %spec.store.select.i = select i1 %or.cond.i, i32 16, i32 %.val15.val
  %12 = getelementptr inbounds nuw i8, ptr %10, i64 4
  store i32 0, ptr %12, align 4, !tbaa !28
  store i32 %spec.store.select.i, ptr %10, align 8, !tbaa !80
  %.not.i = icmp eq i32 %spec.store.select.i, 0
  br i1 %.not.i, label %Vec_IntAlloc.exit, label %13

13:                                               ; preds = %.lr.ph26
  %14 = sext i32 %spec.store.select.i to i64
  %15 = shl nsw i64 %14, 2
  %16 = call noalias ptr @malloc(i64 noundef %15) #31
  br label %Vec_IntAlloc.exit

Vec_IntAlloc.exit:                                ; preds = %.lr.ph26, %13
  %17 = phi ptr [ %16, %13 ], [ null, %.lr.ph26 ]
  %18 = getelementptr inbounds nuw i8, ptr %10, i64 8
  store ptr %17, ptr %18, align 8, !tbaa !29
  %19 = icmp sgt i32 %.val15.val, 0
  br i1 %19, label %.lr.ph, label %._crit_edge

.lr.ph:                                           ; preds = %Vec_IntAlloc.exit, %Vec_IntPush.exit
  %20 = phi ptr [ %.pre.i28, %Vec_IntPush.exit ], [ %17, %Vec_IntAlloc.exit ]
  %.023 = phi i32 [ %45, %Vec_IntPush.exit ], [ 0, %Vec_IntAlloc.exit ]
  %21 = load i32, ptr %2, align 4, !tbaa !30
  %22 = lshr i32 %21, %.023
  %23 = and i32 %22, 1
  %24 = load i32, ptr %12, align 4, !tbaa !28
  %25 = load i32, ptr %10, align 8, !tbaa !80
  %26 = icmp eq i32 %24, %25
  br i1 %26, label %27, label %Vec_IntPush.exit

27:                                               ; preds = %.lr.ph
  %28 = icmp slt i32 %24, 16
  br i1 %28, label %29, label %34

29:                                               ; preds = %27
  %.not9.i.i = icmp eq ptr %20, null
  br i1 %.not9.i.i, label %32, label %30

30:                                               ; preds = %29
  %31 = call dereferenceable_or_null(64) ptr @realloc(ptr noundef nonnull %20, i64 noundef 64) #34
  br label %Vec_IntPush.exit.sink.split

32:                                               ; preds = %29
  %33 = call noalias dereferenceable_or_null(64) ptr @malloc(i64 noundef 64) #31
  br label %Vec_IntPush.exit.sink.split

34:                                               ; preds = %27
  %35 = shl nuw nsw i32 %24, 1
  %.not9.i9.i = icmp eq ptr %20, null
  %36 = zext nneg i32 %35 to i64
  %37 = shl nuw nsw i64 %36, 2
  br i1 %.not9.i9.i, label %40, label %38

38:                                               ; preds = %34
  %39 = call ptr @realloc(ptr noundef nonnull %20, i64 noundef %37) #34
  br label %Vec_IntPush.exit.sink.split

40:                                               ; preds = %34
  %41 = call noalias ptr @malloc(i64 noundef %37) #31
  br label %Vec_IntPush.exit.sink.split

Vec_IntPush.exit.sink.split:                      ; preds = %38, %40, %30, %32
  %.sink30 = phi ptr [ %31, %30 ], [ %33, %32 ], [ %39, %38 ], [ %41, %40 ]
  %.sink = phi i32 [ 16, %30 ], [ 16, %32 ], [ %35, %38 ], [ %35, %40 ]
  store ptr %.sink30, ptr %18, align 8, !tbaa !29
  store i32 %.sink, ptr %10, align 8, !tbaa !80
  br label %Vec_IntPush.exit

Vec_IntPush.exit:                                 ; preds = %Vec_IntPush.exit.sink.split, %.lr.ph
  %.pre.i28 = phi ptr [ %20, %.lr.ph ], [ %.sink30, %Vec_IntPush.exit.sink.split ]
  %42 = add nsw i32 %24, 1
  store i32 %42, ptr %12, align 4, !tbaa !28
  %43 = sext i32 %24 to i64
  %44 = getelementptr inbounds i32, ptr %.pre.i28, i64 %43
  store i32 %23, ptr %44, align 4, !tbaa !30
  %45 = add nuw nsw i32 %.023, 1
  %.val = load ptr, ptr %3, align 8, !tbaa !3
  %46 = getelementptr i8, ptr %.val, i64 4
  %.val.val = load i32, ptr %46, align 4, !tbaa !28
  %47 = icmp slt i32 %45, %.val.val
  br i1 %47, label %.lr.ph, label %._crit_edge, !llvm.loop !298

._crit_edge:                                      ; preds = %Vec_IntPush.exit, %Vec_IntAlloc.exit
  %48 = phi ptr [ %17, %Vec_IntAlloc.exit ], [ %.pre.i28, %Vec_IntPush.exit ]
  %49 = call ptr @Gia_SimQualityOne(ptr noundef nonnull %0, ptr noundef nonnull %10, i32 noundef 1)
  %50 = getelementptr inbounds nuw i8, ptr %49, i64 4
  %51 = load i32, ptr %50, align 4, !tbaa !28
  %52 = icmp sgt i32 %51, 0
  br i1 %52, label %.lr.ph.i, label %Vec_IntSum.exit

.lr.ph.i:                                         ; preds = %._crit_edge
  %53 = getelementptr inbounds nuw i8, ptr %49, i64 8
  %54 = load ptr, ptr %53, align 8, !tbaa !29
  %wide.trip.count.i = zext nneg i32 %51 to i64
  br label %55

55:                                               ; preds = %55, %.lr.ph.i
  %indvars.iv.i = phi i64 [ 0, %.lr.ph.i ], [ %indvars.iv.next.i, %55 ]
  %.08.i = phi i32 [ 0, %.lr.ph.i ], [ %58, %55 ]
  %56 = getelementptr inbounds nuw i32, ptr %54, i64 %indvars.iv.i
  %57 = load i32, ptr %56, align 4, !tbaa !30
  %58 = add nsw i32 %57, %.08.i
  %indvars.iv.next.i = add nuw nsw i64 %indvars.iv.i, 1
  %exitcond.not.i = icmp eq i64 %indvars.iv.next.i, %wide.trip.count.i
  br i1 %exitcond.not.i, label %Vec_IntSum.exit, label %55, !llvm.loop !299

Vec_IntSum.exit:                                  ; preds = %55, %._crit_edge
  %.0.lcssa.i = phi i32 [ 0, %._crit_edge ], [ %58, %55 ]
  %59 = call i32 (ptr, ...) @printf(ptr noundef nonnull dereferenceable(1) @.str.38, i32 noundef %.0.lcssa.i)
  %60 = getelementptr inbounds nuw i8, ptr %49, i64 8
  %61 = load ptr, ptr %60, align 8, !tbaa !29
  %.not.i18 = icmp eq ptr %61, null
  br i1 %.not.i18, label %Vec_IntFree.exit, label %62

62:                                               ; preds = %Vec_IntSum.exit
  call void @free(ptr noundef nonnull %61) #32
  br label %Vec_IntFree.exit

Vec_IntFree.exit:                                 ; preds = %Vec_IntSum.exit, %62
  call void @free(ptr noundef nonnull %49) #32
  %.not.i19 = icmp eq ptr %48, null
  br i1 %.not.i19, label %Vec_IntFree.exit20, label %63

63:                                               ; preds = %Vec_IntFree.exit
  call void @free(ptr noundef nonnull %48) #32
  br label %Vec_IntFree.exit20

Vec_IntFree.exit20:                               ; preds = %Vec_IntFree.exit, %63
  call void @free(ptr noundef nonnull %10) #32
  %putchar14 = call i32 @putchar(i32 10)
  %64 = load i32, ptr %2, align 4, !tbaa !30
  %65 = add nsw i32 %64, 1
  store i32 %65, ptr %2, align 4, !tbaa !30
  %66 = icmp slt i32 %65, %5
  br i1 %66, label %.lr.ph26, label %._crit_edge27, !llvm.loop !300

._crit_edge27:                                    ; preds = %Vec_IntFree.exit20, %1
  call void @llvm.lifetime.end.p0(i64 4, ptr nonnull %2) #32
  ret void
}